target datalayout = "e-m:e-p270:32:32-p271:32:32-p272:64:64-i64:64-i128:128-f80:128-n8:16:32:64-S128"
target triple = "x86_64-pc-linux-gnu"

%struct.jpeg_compress_struct = type { ptr, ptr, ptr, ptr, i32, i32, ptr, i32, i32, i32, i32, double, i32, i32, i32, ptr, [4 x ptr], [4 x ptr], [4 x ptr], [16 x i8], [16 x i8], [16 x i8], i32, ptr, i32, i32, i32, i32, i32, i32, i32, i32, i32, i8, i8, i8, i16, i16, i32, i32, i32, i32, i32, i32, i32, [4 x ptr], i32, i32, i32, [10 x i32], i32, i32, i32, i32, ptr, ptr, ptr, ptr, ptr, ptr, ptr, ptr, ptr, ptr, i32 }
%struct.jpeg_error_mgr = type { ptr, ptr, ptr, ptr, ptr, i32, %union.anon, i32, i64, ptr, i32, ptr, i32, i32 }
%union.anon = type { [8 x i32], [48 x i8] }
%struct.jpeg_memory_mgr = type { ptr, ptr, ptr, ptr, ptr, ptr, ptr, ptr, ptr, ptr, ptr, i64, i64 }
%struct._tga_source_struct = type { %struct.cjpeg_source_struct, ptr, ptr, ptr, i32, ptr, [4 x i8], i32, i32, i32, i32, ptr }
%struct.cjpeg_source_struct = type { ptr, ptr, ptr, ptr, ptr, ptr, ptr, i32, i32 }

; Function Attrs: nounwind uwtable
define dso_local ptr @jinit_read_targa(ptr noundef %0) #0 {
  %2 = alloca ptr, align 8
  %3 = alloca ptr, align 8
  store ptr %0, ptr %2, align 8
  %4 = load ptr, ptr %2, align 8
  %5 = getelementptr inbounds %struct.jpeg_compress_struct, ptr %4, i32 0, i32 12
  %6 = load i32, ptr %5, align 8
  %7 = icmp ne i32 %6, 8
  br i1 %7, label %8, label %27

8:                                                ; preds = %1
  %9 = load ptr, ptr %2, align 8
  %10 = getelementptr inbounds %struct.jpeg_compress_struct, ptr %9, i32 0, i32 0
  %11 = load ptr, ptr %10, align 8
  %12 = getelementptr inbounds %struct.jpeg_error_mgr, ptr %11, i32 0, i32 5
  store i32 15, ptr %12, align 8
  %13 = load ptr, ptr %2, align 8
  %14 = getelementptr inbounds %struct.jpeg_compress_struct, ptr %13, i32 0, i32 12
  %15 = load i32, ptr %14, align 8
  %16 = load ptr, ptr %2, align 8
  %17 = getelementptr inbounds %struct.jpeg_compress_struct, ptr %16, i32 0, i32 0
  %18 = load ptr, ptr %17, align 8
  %19 = getelementptr inbounds %struct.jpeg_error_mgr, ptr %18, i32 0, i32 6
  %20 = getelementptr inbounds [8 x i32], ptr %19, i64 0, i64 0
  store i32 %15, ptr %20, align 4
  %21 = load ptr, ptr %2, align 8
  %22 = getelementptr inbounds %struct.jpeg_compress_struct, ptr %21, i32 0, i32 0
  %23 = load ptr, ptr %22, align 8
  %24 = getelementptr inbounds %struct.jpeg_error_mgr, ptr %23, i32 0, i32 0
  %25 = load ptr, ptr %24, align 8
  %26 = load ptr, ptr %2, align 8
  call void %25(ptr noundef %26)
  br label %27

27:                                               ; preds = %8, %1
  %28 = load ptr, ptr %2, align 8
  %29 = getelementptr inbounds %struct.jpeg_compress_struct, ptr %28, i32 0, i32 1
  %30 = load ptr, ptr %29, align 8
  %31 = getelementptr inbounds %struct.jpeg_memory_mgr, ptr %30, i32 0, i32 0
  %32 = load ptr, ptr %31, align 8
  %33 = load ptr, ptr %2, align 8
  %34 = call ptr %32(ptr noundef %33, i32 noundef 1, i64 noundef 136)
  store ptr %34, ptr %3, align 8
  %35 = load ptr, ptr %2, align 8
  %36 = load ptr, ptr %3, align 8
  %37 = getelementptr inbounds %struct._tga_source_struct, ptr %36, i32 0, i32 1
  store ptr %35, ptr %37, align 8
  %38 = load ptr, ptr %3, align 8
  %39 = getelementptr inbounds %struct._tga_source_struct, ptr %38, i32 0, i32 0
  %40 = getelementptr inbounds %struct.cjpeg_source_struct, ptr %39, i32 0, i32 0
  store ptr @start_input_tga, ptr %40, align 8
  %41 = load ptr, ptr %3, align 8
  %42 = getelementptr inbounds %struct._tga_source_struct, ptr %41, i32 0, i32 0
  %43 = getelementptr inbounds %struct.cjpeg_source_struct, ptr %42, i32 0, i32 2
  store ptr @finish_input_tga, ptr %43, align 8
  %44 = load ptr, ptr %3, align 8
  %45 = getelementptr inbounds %struct._tga_source_struct, ptr %44, i32 0, i32 0
  %46 = getelementptr inbounds %struct.cjpeg_source_struct, ptr %45, i32 0, i32 8
  store i32 0, ptr %46, align 4
  %47 = load ptr, ptr %3, align 8
  ret ptr %47
}