; Function Attrs: nounwind uwtable
define dso_local noundef ptr @jinit_read_targa(ptr noundef %0) local_unnamed_addr #0 {
  %2 = getelementptr inbounds i8, ptr %0, i64 72
  %3 = load i32, ptr %2, align 8
  %.not = icmp eq i32 %3, 8
  br i1 %.not, label %12, label %4

4:                                                ; preds = %1
  %5 = load ptr, ptr %0, align 8
  %6 = getelementptr inbounds i8, ptr %5, i64 40
  store i32 15, ptr %6, align 8
  %7 = load i32, ptr %2, align 8
  %8 = load ptr, ptr %0, align 8
  %9 = getelementptr inbounds i8, ptr %8, i64 44
  store i32 %7, ptr %9, align 4
  %10 = load ptr, ptr %0, align 8
  %11 = load ptr, ptr %10, align 8
  tail call void %11(ptr noundef nonnull %0) #3
  br label %12

12:                                               ; preds = %4, %1
  %13 = getelementptr inbounds i8, ptr %0, i64 8
  %14 = load ptr, ptr %13, align 8
  %15 = load ptr, ptr %14, align 8
  %16 = tail call ptr %15(ptr noundef nonnull %0, i32 noundef 1, i64 noundef 136) #3
  %17 = getelementptr inbounds i8, ptr %16, i64 64
  store ptr %0, ptr %17, align 8
  store ptr @start_input_tga, ptr %16, align 8
  %18 = getelementptr inbounds i8, ptr %16, i64 16
  store ptr @finish_input_tga, ptr %18, align 8
  %19 = getelementptr inbounds i8, ptr %16, i64 60
  store i32 0, ptr %19, align 4
  ret ptr %16
}